target datalayout = "e-m:e-p270:32:32-p271:32:32-p272:64:64-i64:64-i128:128-f80:128-n8:16:32:64-S128"
target triple = "x86_64-pc-linux-gnu"

%"class.zxing::GreyscaleLuminanceSource" = type { %"class.zxing::LuminanceSource.base", %"class.zxing::ArrayRef", i32, i32, i32, i32 }
%"class.zxing::LuminanceSource.base" = type { %"class.zxing::Counted.base", i32, i32 }
%"class.zxing::Counted.base" = type <{ ptr, i32 }>
%"class.zxing::ArrayRef" = type { %"class.zxing::Counted.base", ptr }
%"class.zxing::LuminanceSource" = type { %"class.zxing::Counted.base", i32, i32, [4 x i8] }
%"class.zxing::Array" = type { %"class.zxing::Counted.base", %"class.std::vector" }
%"class.std::vector" = type { %"struct.std::_Vector_base" }
%"struct.std::_Vector_base" = type { %"struct.std::_Vector_base<char, std::allocator<char>>::_Vector_impl" }
%"struct.std::_Vector_base<char, std::allocator<char>>::_Vector_impl" = type { %"struct.std::_Vector_base<char, std::allocator<char>>::_Vector_impl_data" }
%"struct.std::_Vector_base<char, std::allocator<char>>::_Vector_impl_data" = type { ptr, ptr, ptr }
%"class.zxing::Counted" = type <{ ptr, i32, [4 x i8] }>

@_ZTVN5zxing8ArrayRefIcEE = linkonce_odr hidden unnamed_addr constant { [4 x ptr] } { [4 x ptr] [ptr null, ptr @_ZTIN5zxing8ArrayRefIcEE, ptr @_ZN5zxing8ArrayRefIcED2Ev, ptr @_ZN5zxing8ArrayRefIcED0Ev] }, comdat, align 8
@_ZTVN5zxing7CountedE = linkonce_odr hidden unnamed_addr constant { [4 x ptr] } { [4 x ptr] [ptr null, ptr @_ZTIN5zxing7CountedE, ptr @_ZN5zxing7CountedD2Ev, ptr @_ZN5zxing7CountedD0Ev] }, comdat, align 8

; Function Attrs: mustprogress nounwind uwtable
define linkonce_odr hidden noundef nonnull align 1 dereferenceable(1) ptr @_ZNSt6vectorIcSaIcEEixEm(ptr noundef nonnull align 8 dereferenceable(24) %0, i64 noundef %1) #2 comdat align 2 {
  %3 = alloca ptr, align 8
  %4 = alloca i64, align 8
  store ptr %0, ptr %3, align 8
  store i64 %1, ptr %4, align 8
  %5 = load ptr, ptr %3, align 8
  %6 = getelementptr inbounds %"struct.std::_Vector_base", ptr %5, i32 0, i32 0
  %7 = getelementptr inbounds %"struct.std::_Vector_base<char, std::allocator<char>>::_Vector_impl_data", ptr %6, i32 0, i32 0
  %8 = load ptr, ptr %7, align 8
  %9 = load i64, ptr %4, align 8
  %10 = getelementptr inbounds i8, ptr %8, i64 %9
  ret ptr %10
}

; Function Attrs: mustprogress nounwind uwtable
define linkonce_odr hidden noundef ptr @_ZN5zxing7Counted6retainEv(ptr noundef nonnull align 8 dereferenceable(12) %0) #2 comdat align 2 {
  %2 = alloca ptr, align 8
  store ptr %0, ptr %2, align 8
  %3 = load ptr, ptr %2, align 8
  %4 = getelementptr inbounds %"class.zxing::Counted", ptr %3, i32 0, i32 1
  %5 = load i32, ptr %4, align 8
  %6 = add i32 %5, 1
  store i32 %6, ptr %4, align 8
  ret ptr %3
}

; Function Attrs: mustprogress nounwind uwtable
define linkonce_odr hidden void @_ZN5zxing7Counted7releaseEv(ptr noundef nonnull align 8 dereferenceable(12) %0) #2 comdat align 2 {
  %2 = alloca ptr, align 8
  store ptr %0, ptr %2, align 8
  %3 = load ptr, ptr %2, align 8
  %4 = getelementptr inbounds %"class.zxing::Counted", ptr %3, i32 0, i32 1
  %5 = load i32, ptr %4, align 8
  %6 = add i32 %5, -1
  store i32 %6, ptr %4, align 8
  %7 = getelementptr inbounds %"class.zxing::Counted", ptr %3, i32 0, i32 1
  %8 = load i32, ptr %7, align 8
  %9 = icmp eq i32 %8, 0
  br i1 %9, label %10, label %18

10:                                               ; preds = %1
  %11 = getelementptr inbounds %"class.zxing::Counted", ptr %3, i32 0, i32 1
  store i32 -559026175, ptr %11, align 8
  %12 = icmp eq ptr %3, null
  br i1 %12, label %17, label %13

13:                                               ; preds = %10
  %14 = load ptr, ptr %3, align 8
  %15 = getelementptr inbounds ptr, ptr %14, i64 1
  %16 = load ptr, ptr %15, align 8
  call void %16(ptr noundef nonnull align 8 dereferenceable(12) %3) #10
  br label %17

17:                                               ; preds = %13, %10
  br label %18

18:                                               ; preds = %17, %1
  ret void
}

; Function Attrs: mustprogress nounwind uwtable
define linkonce_odr hidden noundef nonnull align 1 dereferenceable(1) ptr @_ZN5zxing5ArrayIcEixEi(ptr noundef nonnull align 8 dereferenceable(40) %0, i32 noundef %1) #2 comdat align 2 {
  %3 = alloca ptr, align 8
  %4 = alloca i32, align 4
  store ptr %0, ptr %3, align 8
  store i32 %1, ptr %4, align 4
  %5 = load ptr, ptr %3, align 8
  %6 = getelementptr inbounds %"class.zxing::Array", ptr %5, i32 0, i32 1
  %7 = load i32, ptr %4, align 4
  %8 = sext i32 %7 to i64
  %9 = call noundef nonnull align 1 dereferenceable(1) ptr @_ZNSt6vectorIcSaIcEEixEm(ptr noundef nonnull align 8 dereferenceable(24) %6, i64 noundef %8) #10
  ret ptr %9
}

; Function Attrs: mustprogress nounwind uwtable
define linkonce_odr hidden void @_ZN5zxing7CountedD2Ev(ptr noundef nonnull align 8 dereferenceable(12) %0) unnamed_addr #2 comdat align 2 {
  %2 = alloca ptr, align 8
  store ptr %0, ptr %2, align 8
  ret void
}

; Function Attrs: mustprogress uwtable
define linkonce_odr hidden void @_ZN5zxing8ArrayRefIcE5resetEPNS_5ArrayIcEE(ptr noundef nonnull align 8 dereferenceable(24) %0, ptr noundef %1) #0 comdat align 2 {
  %3 = alloca ptr, align 8
  %4 = alloca ptr, align 8
  store ptr %0, ptr %3, align 8
  store ptr %1, ptr %4, align 8
  %5 = load ptr, ptr %3, align 8
  %6 = load ptr, ptr %4, align 8
  %7 = icmp ne ptr %6, null
  br i1 %7, label %8, label %11

8:                                                ; preds = %2
  %9 = load ptr, ptr %4, align 8
  %10 = call noundef ptr @_ZN5zxing7Counted6retainEv(ptr noundef nonnull align 8 dereferenceable(12) %9)
  br label %11

11:                                               ; preds = %8, %2
  %12 = getelementptr inbounds %"class.zxing::ArrayRef", ptr %5, i32 0, i32 1
  %13 = load ptr, ptr %12, align 8
  %14 = icmp ne ptr %13, null
  br i1 %14, label %15, label %18

15:                                               ; preds = %11
  %16 = getelementptr inbounds %"class.zxing::ArrayRef", ptr %5, i32 0, i32 1
  %17 = load ptr, ptr %16, align 8
  call void @_ZN5zxing7Counted7releaseEv(ptr noundef nonnull align 8 dereferenceable(12) %17)
  br label %18

18:                                               ; preds = %15, %11
  %19 = load ptr, ptr %4, align 8
  %20 = getelementptr inbounds %"class.zxing::ArrayRef", ptr %5, i32 0, i32 1
  store ptr %19, ptr %20, align 8
  ret void
}

; Function Attrs: mustprogress nounwind uwtable
define linkonce_odr hidden void @_ZN5zxing7CountedC2Ev(ptr noundef nonnull align 8 dereferenceable(12) %0) unnamed_addr #2 comdat align 2 {
  %2 = alloca ptr, align 8
  store ptr %0, ptr %2, align 8
  %3 = load ptr, ptr %2, align 8
  store ptr getelementptr inbounds inrange(-16, 16) ({ [4 x ptr] }, ptr @_ZTVN5zxing7CountedE, i32 0, i32 0, i32 2), ptr %3, align 8
  %4 = getelementptr inbounds %"class.zxing::Counted", ptr %3, i32 0, i32 1
  store i32 0, ptr %4, align 8
  ret void
}

; Function Attrs: mustprogress nounwind uwtable
define linkonce_odr hidden void @_ZN5zxing8ArrayRefIcED2Ev(ptr noundef nonnull align 8 dereferenceable(24) %0) unnamed_addr #2 comdat align 2 {
  %2 = alloca ptr, align 8
  store ptr %0, ptr %2, align 8
  %3 = load ptr, ptr %2, align 8
  store ptr getelementptr inbounds inrange(-16, 16) ({ [4 x ptr] }, ptr @_ZTVN5zxing8ArrayRefIcEE, i32 0, i32 0, i32 2), ptr %3, align 8
  %4 = getelementptr inbounds %"class.zxing::ArrayRef", ptr %3, i32 0, i32 1
  %5 = load ptr, ptr %4, align 8
  %6 = icmp ne ptr %5, null
  br i1 %6, label %7, label %10

7:                                                ; preds = %1
  %8 = getelementptr inbounds %"class.zxing::ArrayRef", ptr %3, i32 0, i32 1
  %9 = load ptr, ptr %8, align 8
  call void @_ZN5zxing7Counted7releaseEv(ptr noundef nonnull align 8 dereferenceable(12) %9)
  br label %10

10:                                               ; preds = %7, %1
  %11 = getelementptr inbounds %"class.zxing::ArrayRef", ptr %3, i32 0, i32 1
  store ptr null, ptr %11, align 8
  call void @_ZN5zxing7CountedD2Ev(ptr noundef nonnull align 8 dereferenceable(12) %3) #10
  ret void
}

; Function Attrs: mustprogress nounwind uwtable
define linkonce_odr hidden noundef nonnull align 1 dereferenceable(1) ptr @_ZNK5zxing8ArrayRefIcEixEi(ptr noundef nonnull align 8 dereferenceable(24) %0, i32 noundef %1) #2 comdat align 2 {
  %3 = alloca ptr, align 8
  %4 = alloca i32, align 4
  store ptr %0, ptr %3, align 8
  store i32 %1, ptr %4, align 4
  %5 = load ptr, ptr %3, align 8
  %6 = getelementptr inbounds %"class.zxing::ArrayRef", ptr %5, i32 0, i32 1
  %7 = load ptr, ptr %6, align 8
  %8 = load i32, ptr %4, align 4
  %9 = call noundef nonnull align 1 dereferenceable(1) ptr @_ZN5zxing5ArrayIcEixEi(ptr noundef nonnull align 8 dereferenceable(40) %7, i32 noundef %8)
  ret ptr %9
}

; Function Attrs: mustprogress uwtable
define linkonce_odr hidden noundef nonnull align 1 dereferenceable(1) ptr @_ZN5zxing8ArrayRefIcEixEi(ptr noundef nonnull align 8 dereferenceable(24) %0, i32 noundef %1) #0 comdat align 2 {
  %3 = alloca ptr, align 8
  %4 = alloca i32, align 4
  store ptr %0, ptr %3, align 8
  store i32 %1, ptr %4, align 4
  %5 = load ptr, ptr %3, align 8
  %6 = getelementptr inbounds %"class.zxing::ArrayRef", ptr %5, i32 0, i32 1
  %7 = load ptr, ptr %6, align 8
  %8 = load i32, ptr %4, align 4
  %9 = call noundef nonnull align 1 dereferenceable(1) ptr @_ZN5zxing5ArrayIcEixEi(ptr noundef nonnull align 8 dereferenceable(40) %7, i32 noundef %8)
  ret ptr %9
}

; Function Attrs: mustprogress uwtable
define linkonce_odr hidden void @_ZN5zxing8ArrayRefIcEC2Ei(ptr noundef nonnull align 8 dereferenceable(24) %0, i32 noundef %1) unnamed_addr #0 comdat align 2 personality ptr @__gxx_personality_v0 {
  %3 = alloca ptr, align 8
  %4 = alloca i32, align 4
  %5 = alloca ptr, align 8
  %6 = alloca i32, align 4
  store ptr %0, ptr %3, align 8
  store i32 %1, ptr %4, align 4
  %7 = load ptr, ptr %3, align 8
  call void @_ZN5zxing7CountedC2Ev(ptr noundef nonnull align 8 dereferenceable(12) %7)
  store ptr getelementptr inbounds inrange(-16, 16) ({ [4 x ptr] }, ptr @_ZTVN5zxing8ArrayRefIcEE, i32 0, i32 0, i32 2), ptr %7, align 8
  %8 = getelementptr inbounds %"class.zxing::ArrayRef", ptr %7, i32 0, i32 1
  store ptr null, ptr %8, align 8
  %9 = invoke noalias noundef nonnull ptr @_Znwm(i64 noundef 40) #11
          to label %10 unwind label %14

10:                                               ; preds = %2
  %11 = load i32, ptr %4, align 4
  invoke void @_ZN5zxing5ArrayIcEC2Ei(ptr noundef nonnull align 8 dereferenceable(40) %9, i32 noundef %11)
          to label %12 unwind label %18

12:                                               ; preds = %10
  invoke void @_ZN5zxing8ArrayRefIcE5resetEPNS_5ArrayIcEE(ptr noundef nonnull align 8 dereferenceable(24) %7, ptr noundef %9)
          to label %13 unwind label %14

13:                                               ; preds = %12
  ret void

14:                                               ; preds = %12, %2
  %15 = landingpad { ptr, i32 }
          cleanup
  %16 = extractvalue { ptr, i32 } %15, 0
  store ptr %16, ptr %5, align 8
  %17 = extractvalue { ptr, i32 } %15, 1
  store i32 %17, ptr %6, align 4
  br label %22

18:                                               ; preds = %10
  %19 = landingpad { ptr, i32 }
          cleanup
  %20 = extractvalue { ptr, i32 } %19, 0
  store ptr %20, ptr %5, align 8
  %21 = extractvalue { ptr, i32 } %19, 1
  store i32 %21, ptr %6, align 4
  call void @_ZdlPv(ptr noundef %9) #12
  br label %22

22:                                               ; preds = %18, %14
  call void @_ZN5zxing7CountedD2Ev(ptr noundef nonnull align 8 dereferenceable(12) %7) #10
  br label %23

23:                                               ; preds = %22
  %24 = load ptr, ptr %5, align 8
  %25 = load i32, ptr %6, align 4
  %26 = insertvalue { ptr, i32 } poison, ptr %24, 0
  %27 = insertvalue { ptr, i32 } %26, i32 %25, 1
  resume { ptr, i32 } %27
}

; Function Attrs: mustprogress nounwind uwtable
define linkonce_odr hidden noundef i32 @_ZNK5zxing15LuminanceSource9getHeightEv(ptr noundef nonnull align 8 dereferenceable(20) %0) #2 comdat align 2 {
  %2 = alloca ptr, align 8
  store ptr %0, ptr %2, align 8
  %3 = load ptr, ptr %2, align 8
  %4 = getelementptr inbounds %"class.zxing::LuminanceSource", ptr %3, i32 0, i32 2
  %5 = load i32, ptr %4, align 8
  ret i32 %5
}

; Function Attrs: mustprogress nounwind uwtable
define linkonce_odr hidden noundef i32 @_ZNK5zxing15LuminanceSource8getWidthEv(ptr noundef nonnull align 8 dereferenceable(20) %0) #2 comdat align 2 {
  %2 = alloca ptr, align 8
  store ptr %0, ptr %2, align 8
  %3 = load ptr, ptr %2, align 8
  %4 = getelementptr inbounds %"class.zxing::LuminanceSource", ptr %3, i32 0, i32 1
  %5 = load i32, ptr %4, align 4
  ret i32 %5
}

; Function Attrs: mustprogress uwtable
define hidden void @_ZNK5zxing24GreyscaleLuminanceSource9getMatrixEv(ptr dead_on_unwind noalias writable sret(%"class.zxing::ArrayRef") align 8 %0, ptr noundef nonnull align 8 dereferenceable(64) %1) unnamed_addr #0 align 2 personality ptr @__gxx_personality_v0 {
  %3 = alloca ptr, align 8
  %4 = alloca ptr, align 8
  %5 = alloca i32, align 4
  %6 = alloca i1, align 1
  %7 = alloca ptr, align 8
  %8 = alloca i32, align 4
  %9 = alloca i32, align 4
  store ptr %0, ptr %3, align 8
  store ptr %1, ptr %4, align 8
  %10 = load ptr, ptr %4, align 8
  %11 = call noundef i32 @_ZNK5zxing15LuminanceSource8getWidthEv(ptr noundef nonnull align 8 dereferenceable(20) %10)
  %12 = call noundef i32 @_ZNK5zxing15LuminanceSource9getHeightEv(ptr noundef nonnull align 8 dereferenceable(20) %10)
  %13 = mul nsw i32 %11, %12
  store i32 %13, ptr %5, align 4
  store i1 false, ptr %6, align 1
  %14 = load i32, ptr %5, align 4
  call void @_ZN5zxing8ArrayRefIcEC2Ei(ptr noundef nonnull align 8 dereferenceable(24) %0, i32 noundef %14)
  %15 = getelementptr inbounds %"class.zxing::GreyscaleLuminanceSource", ptr %10, i32 0, i32 4
  %16 = load i32, ptr %15, align 8
  %17 = icmp eq i32 %16, 0
  br i1 %17, label %18, label %46

18:                                               ; preds = %2
  %19 = getelementptr inbounds %"class.zxing::GreyscaleLuminanceSource", ptr %10, i32 0, i32 5
  %20 = load i32, ptr %19, align 4
  %21 = icmp eq i32 %20, 0
  br i1 %21, label %22, label %46

22:                                               ; preds = %18
  %23 = getelementptr inbounds %"class.zxing::GreyscaleLuminanceSource", ptr %10, i32 0, i32 2
  %24 = load i32, ptr %23, align 8
  %25 = invoke noundef i32 @_ZNK5zxing15LuminanceSource8getWidthEv(ptr noundef nonnull align 8 dereferenceable(20) %10)
          to label %26 unwind label %42

26:                                               ; preds = %22
  %27 = icmp eq i32 %24, %25
  br i1 %27, label %28, label %46

28:                                               ; preds = %26
  %29 = getelementptr inbounds %"class.zxing::GreyscaleLuminanceSource", ptr %10, i32 0, i32 3
  %30 = load i32, ptr %29, align 4
  %31 = invoke noundef i32 @_ZNK5zxing15LuminanceSource9getHeightEv(ptr noundef nonnull align 8 dereferenceable(20) %10)
          to label %32 unwind label %42

32:                                               ; preds = %28
  %33 = icmp eq i32 %30, %31
  br i1 %33, label %34, label %46

34:                                               ; preds = %32
  %35 = invoke noundef nonnull align 1 dereferenceable(1) ptr @_ZN5zxing8ArrayRefIcEixEi(ptr noundef nonnull align 8 dereferenceable(24) %0, i32 noundef 0)
          to label %36 unwind label %42

36:                                               ; preds = %34
  %37 = getelementptr inbounds %"class.zxing::GreyscaleLuminanceSource", ptr %10, i32 0, i32 1
  %38 = invoke noundef nonnull align 1 dereferenceable(1) ptr @_ZNK5zxing8ArrayRefIcEixEi(ptr noundef nonnull align 8 dereferenceable(24) %37, i32 noundef 0)
          to label %39 unwind label %42

39:                                               ; preds = %36
  %40 = load i32, ptr %5, align 4
  %41 = sext i32 %40 to i64
  call void @llvm.memcpy.p0.p0.i64(ptr align 1 %35, ptr align 1 %38, i64 %41, i1 false)
  br label %79

42:                                               ; preds = %71, %58, %55, %52, %47, %36, %34, %28, %22
  %43 = landingpad { ptr, i32 }
          cleanup
  %44 = extractvalue { ptr, i32 } %43, 0
  store ptr %44, ptr %7, align 8
  %45 = extractvalue { ptr, i32 } %43, 1
  store i32 %45, ptr %8, align 4
  call void @_ZN5zxing8ArrayRefIcED2Ev(ptr noundef nonnull align 8 dereferenceable(24) %0) #10
  br label %83

46:                                               ; preds = %32, %26, %18, %2
  store i32 0, ptr %9, align 4
  br label %47

47:                                               ; preds = %75, %46
  %48 = load i32, ptr %9, align 4
  %49 = invoke noundef i32 @_ZNK5zxing15LuminanceSource9getHeightEv(ptr noundef nonnull align 8 dereferenceable(20) %10)
          to label %50 unwind label %42

50:                                               ; preds = %47
  %51 = icmp slt i32 %48, %49
  br i1 %51, label %52, label %78

52:                                               ; preds = %50
  %53 = load i32, ptr %9, align 4
  %54 = invoke noundef i32 @_ZNK5zxing15LuminanceSource8getWidthEv(ptr noundef nonnull align 8 dereferenceable(20) %10)
          to label %55 unwind label %42

55:                                               ; preds = %52
  %56 = mul nsw i32 %53, %54
  %57 = invoke noundef nonnull align 1 dereferenceable(1) ptr @_ZN5zxing8ArrayRefIcEixEi(ptr noundef nonnull align 8 dereferenceable(24) %0, i32 noundef %56)
          to label %58 unwind label %42

58:                                               ; preds = %55
  %59 = getelementptr inbounds %"class.zxing::GreyscaleLuminanceSource", ptr %10, i32 0, i32 1
  %60 = getelementptr inbounds %"class.zxing::GreyscaleLuminanceSource", ptr %10, i32 0, i32 5
  %61 = load i32, ptr %60, align 4
  %62 = load i32, ptr %9, align 4
  %63 = add nsw i32 %61, %62
  %64 = getelementptr inbounds %"class.zxing::GreyscaleLuminanceSource", ptr %10, i32 0, i32 2
  %65 = load i32, ptr %64, align 8
  %66 = mul nsw i32 %63, %65
  %67 = getelementptr inbounds %"class.zxing::GreyscaleLuminanceSource", ptr %10, i32 0, i32 4
  %68 = load i32, ptr %67, align 8
  %69 = add nsw i32 %66, %68
  %70 = invoke noundef nonnull align 1 dereferenceable(1) ptr @_ZNK5zxing8ArrayRefIcEixEi(ptr noundef nonnull align 8 dereferenceable(24) %59, i32 noundef %69)
          to label %71 unwind label %42

71:                                               ; preds = %58
  %72 = invoke noundef i32 @_ZNK5zxing15LuminanceSource8getWidthEv(ptr noundef nonnull align 8 dereferenceable(20) %10)
          to label %73 unwind label %42

73:                                               ; preds = %71
  %74 = sext i32 %72 to i64
  call void @llvm.memcpy.p0.p0.i64(ptr align 1 %57, ptr align 1 %70, i64 %74, i1 false)
  br label %75

75:                                               ; preds = %73
  %76 = load i32, ptr %9, align 4
  %77 = add nsw i32 %76, 1
  store i32 %77, ptr %9, align 4
  br label %47, !llvm.loop !4

78:                                               ; preds = %50
  br label %79

79:                                               ; preds = %78, %39
  store i1 true, ptr %6, align 1
  %80 = load i1, ptr %6, align 1
  br i1 %80, label %82, label %81

81:                                               ; preds = %79
  call void @_ZN5zxing8ArrayRefIcED2Ev(ptr noundef nonnull align 8 dereferenceable(24) %0) #10
  br label %82

82:                                               ; preds = %81, %79
  ret void

83:                                               ; preds = %42
  %84 = load ptr, ptr %7, align 8
  %85 = load i32, ptr %8, align 4
  %86 = insertvalue { ptr, i32 } poison, ptr %84, 0
  %87 = insertvalue { ptr, i32 } %86, i32 %85, 1
  resume { ptr, i32 } %87
}