; Function Attrs: mustprogress uwtable
define hidden void @_ZNK5zxing24GreyscaleLuminanceSource9getMatrixEv(ptr dead_on_unwind noalias nocapture writable writeonly sret(%"class.zxing::ArrayRef") align 8 %0, ptr nocapture noundef nonnull readonly align 8 dereferenceable(64) %1) unnamed_addr #0 align 2 personality ptr @__gxx_personality_v0 {
  %3 = getelementptr inbounds i8, ptr %1, i64 12
  %4 = load i32, ptr %3, align 4
  %5 = getelementptr inbounds i8, ptr %1, i64 16
  %6 = load i32, ptr %5, align 8
  %7 = mul nsw i32 %6, %4
  %8 = getelementptr inbounds i8, ptr %0, i64 8
  store i32 0, ptr %8, align 8
  store ptr getelementptr inbounds inrange(-16, 16) (i8, ptr @_ZTVN5zxing8ArrayRefIcEE, i64 16), ptr %0, align 8
  %9 = getelementptr inbounds i8, ptr %0, i64 16
  store ptr null, ptr %9, align 8
  %10 = tail call noalias noundef nonnull dereferenceable(40) ptr @_Znwm(i64 noundef 40) #11
  invoke void @_ZN5zxing5ArrayIcEC2Ei(ptr noundef nonnull align 8 dereferenceable(40) %10, i32 noundef %7)
          to label %_ZN5zxing8ArrayRefIcEC2Ei.exit unwind label %11

11:                                               ; preds = %2
  %12 = landingpad { ptr, i32 }
          cleanup
  tail call void @_ZdlPv(ptr noundef nonnull %10) #12
  resume { ptr, i32 } %12

_ZN5zxing8ArrayRefIcEC2Ei.exit:                   ; preds = %2
  %13 = getelementptr inbounds i8, ptr %10, i64 8
  %14 = load i32, ptr %13, align 8
  %15 = add i32 %14, 1
  store i32 %15, ptr %13, align 8
  store ptr %10, ptr %9, align 8
  %16 = getelementptr inbounds i8, ptr %1, i64 56
  %17 = load i32, ptr %16, align 8
  %18 = icmp eq i32 %17, 0
  %19 = getelementptr inbounds i8, ptr %1, i64 60
  %20 = load i32, ptr %19, align 4
  %21 = icmp eq i32 %20, 0
  %or.cond = select i1 %18, i1 %21, i1 false
  br i1 %or.cond, label %22, label %_ZN5zxing8ArrayRefIcEC2Ei.exit._crit_edge

_ZN5zxing8ArrayRefIcEC2Ei.exit._crit_edge:        ; preds = %_ZN5zxing8ArrayRefIcEC2Ei.exit
  %.pre = load i32, ptr %5, align 8
  br label %38

22:                                               ; preds = %_ZN5zxing8ArrayRefIcEC2Ei.exit
  %23 = getelementptr inbounds i8, ptr %1, i64 48
  %24 = load i32, ptr %23, align 8
  %25 = load i32, ptr %3, align 4
  %26 = icmp eq i32 %24, %25
  %.pre12 = load i32, ptr %5, align 8
  %27 = getelementptr inbounds i8, ptr %1, i64 52
  %28 = load i32, ptr %27, align 4
  %29 = icmp eq i32 %28, %.pre12
  %or.cond15 = select i1 %26, i1 %29, i1 false
  br i1 %or.cond15, label %30, label %38

30:                                               ; preds = %22
  %31 = getelementptr inbounds i8, ptr %10, i64 16
  %32 = load ptr, ptr %31, align 8
  %33 = getelementptr inbounds i8, ptr %1, i64 40
  %34 = load ptr, ptr %33, align 8
  %35 = getelementptr inbounds i8, ptr %34, i64 16
  %36 = load ptr, ptr %35, align 8
  %37 = sext i32 %7 to i64
  tail call void @llvm.memcpy.p0.p0.i64(ptr nonnull align 1 %32, ptr nonnull align 1 %36, i64 %37, i1 false)
  br label %.loopexit

38:                                               ; preds = %_ZN5zxing8ArrayRefIcEC2Ei.exit._crit_edge, %22
  %39 = phi i32 [ %.pre, %_ZN5zxing8ArrayRefIcEC2Ei.exit._crit_edge ], [ %.pre12, %22 ]
  %40 = icmp sgt i32 %39, 0
  br i1 %40, label %.lr.ph, label %.loopexit

.lr.ph:                                           ; preds = %38
  %41 = getelementptr inbounds i8, ptr %10, i64 16
  %42 = getelementptr inbounds i8, ptr %1, i64 48
  %43 = getelementptr inbounds i8, ptr %1, i64 40
  br label %44

44:                                               ; preds = %.lr.ph, %44
  %.011 = phi i32 [ 0, %.lr.ph ], [ %62, %44 ]
  %45 = load i32, ptr %3, align 4
  %46 = mul nsw i32 %45, %.011
  %47 = sext i32 %46 to i64
  %48 = load ptr, ptr %41, align 8
  %49 = getelementptr inbounds i8, ptr %48, i64 %47
  %50 = load i32, ptr %19, align 4
  %51 = add nsw i32 %50, %.011
  %52 = load i32, ptr %42, align 8
  %53 = mul nsw i32 %51, %52
  %54 = load i32, ptr %16, align 8
  %55 = add nsw i32 %53, %54
  %56 = load ptr, ptr %43, align 8
  %57 = getelementptr inbounds i8, ptr %56, i64 16
  %58 = sext i32 %55 to i64
  %59 = load ptr, ptr %57, align 8
  %60 = getelementptr inbounds i8, ptr %59, i64 %58
  %61 = sext i32 %45 to i64
  tail call void @llvm.memcpy.p0.p0.i64(ptr nonnull align 1 %49, ptr nonnull align 1 %60, i64 %61, i1 false)
  %62 = add nuw nsw i32 %.011, 1
  %63 = load i32, ptr %5, align 8
  %64 = icmp slt i32 %62, %63
  br i1 %64, label %44, label %.loopexit, !llvm.loop !4

.loopexit:                                        ; preds = %44, %38, %30
  ret void
}